; Function Attrs: null_pointer_is_valid sspstrong uwtable
define internal noundef zeroext i1 @dissect_vts_parameter(ptr noundef %0, ptr noundef %1, ptr noundef %2, i32 noundef %3, i32 noundef %4, i16 noundef zeroext %5, ptr noundef readonly captures(none) %6, i32 noundef %7, i32 noundef %8, ptr readnone captures(none) %9, ptr readnone captures(none) %10) #0 {
  %12 = icmp eq i32 %4, 2
  %13 = icmp eq i16 %5, 61
  %or.cond.not25.not29 = and i1 %12, %13
  %14 = icmp ult i32 %7, 2
  %or.cond22.not = and i1 %or.cond.not25.not29, %14
  br i1 %or.cond22.not, label %15, label %35

15:                                               ; preds = %11
  %trunc = trunc nuw i32 %7 to i1
  br i1 %trunc, label %21, label %16

16:                                               ; preds = %15
  %17 = load i32, ptr @hf_vts_dtmf, align 4
  %18 = tail call ptr @proto_tree_add_item(ptr noundef %2, i32 noundef %17, ptr noundef %0, i32 noundef %3, i32 noundef %8, i32 noundef 0)
  %.not = icmp eq i32 %8, 1
  br i1 %.not, label %35, label %19

19:                                               ; preds = %16
  %20 = tail call ptr @expert_add_info(ptr noundef %1, ptr noundef %18, ptr noundef nonnull @ei_vts_dtmf)
  br label %35

21:                                               ; preds = %15
  %22 = getelementptr inbounds nuw i8, ptr %1, i64 408
  %23 = load ptr, ptr %22, align 8
  %24 = add i32 %8, 1
  %25 = sext i32 %24 to i64
  %26 = tail call noalias ptr @wmem_alloc(ptr noundef %23, i64 noundef %25) #12
  %27 = sext i32 %8 to i64
  %28 = icmp ne i32 %24, -1
  tail call void @llvm.assume(i1 %28)
  %29 = tail call ptr @__memcpy_chk(ptr noundef %26, ptr noundef readonly %6, i64 noundef range(i64 -2147483648, 2147483648) %27, i64 noundef %25) #13, !alias.scope !140
  %30 = getelementptr i8, ptr %26, i64 %27
  store i8 0, ptr %30, align 1
  %31 = tail call i64 @g_ascii_strtoull(ptr noundef %26, ptr noundef null, i32 noundef 10)
  %32 = trunc i64 %31 to i32
  %33 = load i32, ptr @hf_vts_duration, align 4
  %34 = tail call ptr @proto_tree_add_uint(ptr noundef %2, i32 noundef %33, ptr noundef %0, i32 noundef %3, i32 noundef %8, i32 noundef %32)
  br label %35

35:                                               ; preds = %21, %19, %16, %11
  ret i1 %or.cond22.not
}